; Function Attrs: inlinehint nounwind uwtable
define internal fastcc noalias noundef ptr @Vec_VecDupInt(ptr noundef nonnull readonly captures(none) %0) unnamed_addr #5 {
  %2 = getelementptr i8, ptr %0, i64 4
  %.val = load i32, ptr %2, align 4, !tbaa !64
  %3 = tail call noalias dereferenceable_or_null(16) ptr @malloc(i64 noundef 16) #19
  %4 = add i32 %.val, -1
  %or.cond.i = icmp ult i32 %4, 7
  %spec.store.select.i = select i1 %or.cond.i, i32 8, i32 %.val
  %5 = getelementptr inbounds nuw i8, ptr %3, i64 4
  store i32 0, ptr %5, align 4, !tbaa !25
  store i32 %spec.store.select.i, ptr %3, align 8, !tbaa !27
  %.not.i = icmp eq i32 %spec.store.select.i, 0
  br i1 %.not.i, label %Vec_PtrAlloc.exit, label %6

6:                                                ; preds = %1
  %7 = sext i32 %spec.store.select.i to i64
  %8 = shl nsw i64 %7, 3
  %9 = tail call noalias ptr @malloc(i64 noundef %8) #19
  br label %Vec_PtrAlloc.exit

Vec_PtrAlloc.exit:                                ; preds = %1, %6
  %10 = phi ptr [ %9, %6 ], [ null, %1 ]
  %11 = getelementptr inbounds nuw i8, ptr %3, i64 8
  store ptr %10, ptr %11, align 8, !tbaa !28
  %12 = icmp sgt i32 %.val, 0
  br i1 %12, label %.lr.ph, label %.critedge

.lr.ph:                                           ; preds = %Vec_PtrAlloc.exit
  %13 = getelementptr i8, ptr %0, i64 8
  br label %14

14:                                               ; preds = %.lr.ph, %Vec_PtrPush.exit
  %indvars.iv16 = phi i64 [ 0, %.lr.ph ], [ %indvars.iv.next17, %Vec_PtrPush.exit ]
  %indvars.iv = phi i64 [ 0, %.lr.ph ], [ %indvars.iv.next, %Vec_PtrPush.exit ]
  %15 = phi i32 [ %spec.store.select.i, %.lr.ph ], [ %50, %Vec_PtrPush.exit ]
  %.val9 = load ptr, ptr %13, align 8, !tbaa !66
  %16 = getelementptr inbounds nuw ptr, ptr %.val9, i64 %indvars.iv16
  %17 = load ptr, ptr %16, align 8, !tbaa !40
  %18 = tail call noalias dereferenceable_or_null(16) ptr @malloc(i64 noundef 16) #19
  %19 = getelementptr inbounds nuw i8, ptr %17, i64 4
  %20 = load i32, ptr %19, align 4, !tbaa !59
  %21 = getelementptr inbounds nuw i8, ptr %18, i64 4
  store i32 %20, ptr %21, align 4, !tbaa !59
  store i32 %20, ptr %18, align 8, !tbaa !60
  %.not.i10 = icmp eq i32 %20, 0
  br i1 %.not.i10, label %Vec_IntDup.exit, label %22

22:                                               ; preds = %14
  %23 = sext i32 %20 to i64
  %24 = shl nsw i64 %23, 2
  %25 = tail call noalias ptr @malloc(i64 noundef %24) #19
  br label %Vec_IntDup.exit

Vec_IntDup.exit:                                  ; preds = %14, %22
  %.pre-phi12.i = phi i64 [ %24, %22 ], [ 0, %14 ]
  %26 = phi ptr [ %25, %22 ], [ null, %14 ]
  %27 = getelementptr inbounds nuw i8, ptr %18, i64 8
  store ptr %26, ptr %27, align 8, !tbaa !61
  %28 = getelementptr inbounds nuw i8, ptr %17, i64 8
  %29 = load ptr, ptr %28, align 8, !tbaa !61
  tail call void @llvm.memcpy.p0.p0.i64(ptr align 4 %26, ptr align 4 %29, i64 %.pre-phi12.i, i1 false)
  %30 = trunc nsw i64 %indvars.iv to i32
  %31 = icmp eq i32 %15, %30
  br i1 %31, label %32, label %.Vec_PtrGrow.exit11_crit_edge.i

.Vec_PtrGrow.exit11_crit_edge.i:                  ; preds = %Vec_IntDup.exit
  %.pre.i = load ptr, ptr %11, align 8, !tbaa !28
  br label %Vec_PtrPush.exit

32:                                               ; preds = %Vec_IntDup.exit
  %33 = icmp samesign ult i64 %indvars.iv, 16
  %34 = load ptr, ptr %11, align 8, !tbaa !28
  %.not9.i.i = icmp eq ptr %34, null
  br i1 %33, label %35, label %41

35:                                               ; preds = %32
  br i1 %.not9.i.i, label %38, label %36

36:                                               ; preds = %35
  %37 = tail call dereferenceable_or_null(128) ptr @realloc(ptr noundef nonnull %34, i64 noundef 128) #21
  br label %Vec_PtrGrow.exit.i

38:                                               ; preds = %35
  %39 = tail call noalias dereferenceable_or_null(128) ptr @malloc(i64 noundef 128) #19
  br label %Vec_PtrGrow.exit.i

Vec_PtrGrow.exit.i:                               ; preds = %38, %36
  %40 = phi ptr [ %37, %36 ], [ %39, %38 ]
  store ptr %40, ptr %11, align 8, !tbaa !28
  br label %Vec_PtrPush.exit

41:                                               ; preds = %32
  %42 = shl nuw nsw i64 %indvars.iv, 4
  br i1 %.not9.i.i, label %45, label %43

43:                                               ; preds = %41
  %44 = tail call ptr @realloc(ptr noundef nonnull %34, i64 noundef %42) #21
  br label %47

45:                                               ; preds = %41
  %46 = tail call noalias ptr @malloc(i64 noundef %42) #19
  br label %47

47:                                               ; preds = %45, %43
  %48 = phi ptr [ %44, %43 ], [ %46, %45 ]
  store ptr %48, ptr %11, align 8, !tbaa !28
  %indvars.iv.tr = trunc i64 %indvars.iv to i32
  %49 = shl i32 %indvars.iv.tr, 1
  br label %Vec_PtrPush.exit

Vec_PtrPush.exit:                                 ; preds = %.Vec_PtrGrow.exit11_crit_edge.i, %Vec_PtrGrow.exit.i, %47
  %50 = phi i32 [ %15, %.Vec_PtrGrow.exit11_crit_edge.i ], [ %49, %47 ], [ 16, %Vec_PtrGrow.exit.i ]
  %51 = phi ptr [ %.pre.i, %.Vec_PtrGrow.exit11_crit_edge.i ], [ %48, %47 ], [ %40, %Vec_PtrGrow.exit.i ]
  %indvars.iv.next = add nuw nsw i64 %indvars.iv, 1
  %52 = getelementptr inbounds nuw ptr, ptr %51, i64 %indvars.iv
  store ptr %18, ptr %52, align 8, !tbaa !40
  %indvars.iv.next17 = add nuw nsw i64 %indvars.iv16, 1
  %.val8 = load i32, ptr %2, align 4, !tbaa !64
  %53 = sext i32 %.val8 to i64
  %54 = icmp slt i64 %indvars.iv.next17, %53
  br i1 %54, label %14, label %..critedge_crit_edge, !llvm.loop !67

..critedge_crit_edge:                             ; preds = %Vec_PtrPush.exit
  %55 = trunc nsw i64 %indvars.iv.next to i32
  store i32 %55, ptr %5, align 4, !tbaa !25
  store i32 %50, ptr %3, align 8
  br label %.critedge

.critedge:                                        ; preds = %..critedge_crit_edge, %Vec_PtrAlloc.exit
  ret ptr %3
}